; ModuleID = 'source-C-CXX/33/2199.cpp'
source_filename = "source-C-CXX/33/2199.cpp"
target datalayout = "e-m:e-p270:32:32-p271:32:32-p272:64:64-i64:64-f80:128-n8:16:32:64-S128"
target triple = "x86_64-pc-linux-gnu"

%"class.std::ios_base::Init" = type { i8 }
%"class.std::basic_istream" = type { i32 (...)**, i64, %"class.std::basic_ios" }
%"class.std::basic_ios" = type { %"class.std::ios_base", %"class.std::basic_ostream"*, i8, i8, %"class.std::basic_streambuf"*, %"class.std::ctype"*, %"class.std::num_put"*, %"class.std::num_get"* }
%"class.std::ios_base" = type { i32 (...)**, i64, i64, i32, i32, i32, %"struct.std::ios_base::_Callback_list"*, %"struct.std::ios_base::_Words", [8 x %"struct.std::ios_base::_Words"], i32, %"struct.std::ios_base::_Words"*, %"class.std::locale" }
%"struct.std::ios_base::_Callback_list" = type { %"struct.std::ios_base::_Callback_list"*, void (i32, %"class.std::ios_base"*, i32)*, i32, i32 }
%"struct.std::ios_base::_Words" = type { i8*, i64 }
%"class.std::locale" = type { %"class.std::locale::_Impl"* }
%"class.std::locale::_Impl" = type { i32, %"class.std::locale::facet"**, i64, %"class.std::locale::facet"**, i8** }
%"class.std::locale::facet" = type <{ i32 (...)**, i32, [4 x i8] }>
%"class.std::basic_ostream" = type { i32 (...)**, %"class.std::basic_ios" }
%"class.std::basic_streambuf" = type { i32 (...)**, i8*, i8*, i8*, i8*, i8*, i8*, %"class.std::locale" }
%"class.std::ctype" = type <{ %"class.std::locale::facet.base", [4 x i8], %struct.__locale_struct*, i8, [7 x i8], i32*, i32*, i16*, i8, [256 x i8], [256 x i8], i8, [6 x i8] }>
%"class.std::locale::facet.base" = type <{ i32 (...)**, i32 }>
%struct.__locale_struct = type { [13 x %struct.__locale_data*], i16*, i32*, i32*, [13 x i8*] }
%struct.__locale_data = type opaque
%"class.std::num_put" = type { %"class.std::locale::facet.base", [4 x i8] }
%"class.std::num_get" = type { %"class.std::locale::facet.base", [4 x i8] }

@_ZStL8__ioinit = internal global %"class.std::ios_base::Init" zeroinitializer, align 1
@__dso_handle = external hidden global i8
@_ZSt3cin = external global %"class.std::basic_istream", align 8
@_ZSt4cout = external global %"class.std::basic_ostream", align 8
@.str = private unnamed_addr constant [4 x i8] c"End\00", align 1
@.str.1 = private unnamed_addr constant [6 x i8] c"*3+1=\00", align 1
@.str.2 = private unnamed_addr constant [4 x i8] c"/2=\00", align 1
@llvm.global_ctors = appending global [1 x { i32, void ()*, i8* }] [{ i32, void ()*, i8* } { i32 65535, void ()* @_GLOBAL__sub_I_2199.cpp, i8* null }]

declare void @_ZNSt8ios_base4InitC1Ev(%"class.std::ios_base::Init"* nonnull align 1 dereferenceable(1)) unnamed_addr #0

; Function Attrs: nounwind
declare void @_ZNSt8ios_base4InitD1Ev(%"class.std::ios_base::Init"* nonnull align 1 dereferenceable(1)) unnamed_addr #1

; Function Attrs: nofree nounwind
declare i32 @__cxa_atexit(void (i8*)*, i8*, i8*) local_unnamed_addr #2

; Function Attrs: mustprogress norecurse sspstrong uwtable
define dso_local i32 @main() local_unnamed_addr #3 {
  %1 = alloca i32, align 4
  %2 = alloca [1 x i32], align 4
  %3 = bitcast i32* %1 to i8*
  call void @llvm.lifetime.start.p0i8(i64 4, i8* nonnull %3) #8
  %4 = bitcast [1 x i32]* %2 to i8*
  call void @llvm.lifetime.start.p0i8(i64 4, i8* nonnull %4) #8
  %5 = getelementptr inbounds [1 x i32], [1 x i32]* %2, i64 0, i64 0
  store i32 0, i32* %5, align 4
  %6 = call nonnull align 8 dereferenceable(16) %"class.std::basic_istream"* @_ZNSirsERi(%"class.std::basic_istream"* nonnull align 8 dereferenceable(16) @_ZSt3cin, i32* nonnull align 4 dereferenceable(4) %1)
  %7 = load i32, i32* %1, align 4, !tbaa !5
  call void @_Z5checkiPi(i32 %7, i32* nonnull %5)
  %8 = call nonnull align 8 dereferenceable(8) %"class.std::basic_ostream"* @_ZSt16__ostream_insertIcSt11char_traitsIcEERSt13basic_ostreamIT_T0_ES6_PKS3_l(%"class.std::basic_ostream"* nonnull align 8 dereferenceable(8) @_ZSt4cout, i8* nonnull getelementptr inbounds ([4 x i8], [4 x i8]* @.str, i64 0, i64 0), i64 3)
  call void @llvm.lifetime.end.p0i8(i64 4, i8* nonnull %4) #8
  call void @llvm.lifetime.end.p0i8(i64 4, i8* nonnull %3) #8
  ret i32 0
}

; Function Attrs: argmemonly mustprogress nofree nosync nounwind willreturn
declare void @llvm.lifetime.start.p0i8(i64 immarg, i8* nocapture) #4

declare nonnull align 8 dereferenceable(16) %"class.std::basic_istream"* @_ZNSirsERi(%"class.std::basic_istream"* nonnull align 8 dereferenceable(16), i32* nonnull align 4 dereferenceable(4)) local_unnamed_addr #0

; Function Attrs: mustprogress sspstrong uwtable
define dso_local void @_Z5checkiPi(i32 %0, i32* %1) local_unnamed_addr #5 {
  %3 = load i32, i32* %1, align 4, !tbaa !5
  %4 = icmp eq i32 %3, 1
  br i1 %4, label %95, label %5

5:                                                ; preds = %2, %89
  %6 = phi i32 [ %93, %89 ], [ %3, %2 ]
  %7 = phi i32 [ %60, %89 ], [ %0, %2 ]
  %8 = icmp eq i32 %7, 1
  br i1 %8, label %9, label %10

9:                                                ; preds = %5
  store i32 1, i32* %1, align 4, !tbaa !5
  br label %95

10:                                               ; preds = %5
  %11 = srem i32 %7, 2
  %12 = icmp eq i32 %11, 1
  %13 = icmp eq i32 %6, 0
  %14 = select i1 %12, i1 %13, i1 false
  br i1 %14, label %15, label %50

15:                                               ; preds = %10
  %16 = mul nsw i32 %7, 3
  %17 = add nsw i32 %16, 1
  %18 = tail call nonnull align 8 dereferenceable(8) %"class.std::basic_ostream"* @_ZNSolsEi(%"class.std::basic_ostream"* nonnull align 8 dereferenceable(8) @_ZSt4cout, i32 %7)
  %19 = tail call nonnull align 8 dereferenceable(8) %"class.std::basic_ostream"* @_ZSt16__ostream_insertIcSt11char_traitsIcEERSt13basic_ostreamIT_T0_ES6_PKS3_l(%"class.std::basic_ostream"* nonnull align 8 dereferenceable(8) %18, i8* nonnull getelementptr inbounds ([6 x i8], [6 x i8]* @.str.1, i64 0, i64 0), i64 5)
  %20 = tail call nonnull align 8 dereferenceable(8) %"class.std::basic_ostream"* @_ZNSolsEi(%"class.std::basic_ostream"* nonnull align 8 dereferenceable(8) %18, i32 %17)
  %21 = bitcast %"class.std::basic_ostream"* %20 to i8**
  %22 = load i8*, i8** %21, align 8, !tbaa !9
  %23 = getelementptr i8, i8* %22, i64 -24
  %24 = bitcast i8* %23 to i64*
  %25 = load i64, i64* %24, align 8
  %26 = bitcast %"class.std::basic_ostream"* %20 to i8*
  %27 = add nsw i64 %25, 240
  %28 = getelementptr inbounds i8, i8* %26, i64 %27
  %29 = bitcast i8* %28 to %"class.std::ctype"**
  %30 = load %"class.std::ctype"*, %"class.std::ctype"** %29, align 8, !tbaa !11
  %31 = icmp eq %"class.std::ctype"* %30, null
  br i1 %31, label %32, label %33

32:                                               ; preds = %15
  tail call void @_ZSt16__throw_bad_castv() #9
  unreachable

33:                                               ; preds = %15
  %34 = getelementptr inbounds %"class.std::ctype", %"class.std::ctype"* %30, i64 0, i32 8
  %35 = load i8, i8* %34, align 8, !tbaa !15
  %36 = icmp eq i8 %35, 0
  br i1 %36, label %40, label %37

37:                                               ; preds = %33
  %38 = getelementptr inbounds %"class.std::ctype", %"class.std::ctype"* %30, i64 0, i32 9, i64 10
  %39 = load i8, i8* %38, align 1, !tbaa !17
  br label %46

40:                                               ; preds = %33
  tail call void @_ZNKSt5ctypeIcE13_M_widen_initEv(%"class.std::ctype"* nonnull align 8 dereferenceable(570) %30)
  %41 = bitcast %"class.std::ctype"* %30 to i8 (%"class.std::ctype"*, i8)***
  %42 = load i8 (%"class.std::ctype"*, i8)**, i8 (%"class.std::ctype"*, i8)*** %41, align 8, !tbaa !9
  %43 = getelementptr inbounds i8 (%"class.std::ctype"*, i8)*, i8 (%"class.std::ctype"*, i8)** %42, i64 6
  %44 = load i8 (%"class.std::ctype"*, i8)*, i8 (%"class.std::ctype"*, i8)** %43, align 8
  %45 = tail call signext i8 %44(%"class.std::ctype"* nonnull align 8 dereferenceable(570) %30, i8 signext 10)
  br label %46

46:                                               ; preds = %37, %40
  %47 = phi i8 [ %39, %37 ], [ %45, %40 ]
  %48 = tail call nonnull align 8 dereferenceable(8) %"class.std::basic_ostream"* @_ZNSo3putEc(%"class.std::basic_ostream"* nonnull align 8 dereferenceable(8) %20, i8 signext %47)
  %49 = tail call nonnull align 8 dereferenceable(8) %"class.std::basic_ostream"* @_ZNSo5flushEv(%"class.std::basic_ostream"* nonnull align 8 dereferenceable(8) %48)
  tail call void @_Z5checkiPi(i32 %17, i32* nonnull %1)
  br label %50

50:                                               ; preds = %46, %10
  %51 = phi i32 [ %17, %46 ], [ %7, %10 ]
  %52 = icmp ne i32 %51, 1
  %53 = and i32 %51, 1
  %54 = icmp eq i32 %53, 0
  %55 = and i1 %52, %54
  br i1 %55, label %56, label %95

56:                                               ; preds = %50
  %57 = load i32, i32* %1, align 4, !tbaa !5
  %58 = icmp eq i32 %57, 0
  br i1 %58, label %59, label %95

59:                                               ; preds = %56
  %60 = sdiv i32 %51, 2
  %61 = tail call nonnull align 8 dereferenceable(8) %"class.std::basic_ostream"* @_ZNSolsEi(%"class.std::basic_ostream"* nonnull align 8 dereferenceable(8) @_ZSt4cout, i32 %51)
  %62 = tail call nonnull align 8 dereferenceable(8) %"class.std::basic_ostream"* @_ZSt16__ostream_insertIcSt11char_traitsIcEERSt13basic_ostreamIT_T0_ES6_PKS3_l(%"class.std::basic_ostream"* nonnull align 8 dereferenceable(8) %61, i8* nonnull getelementptr inbounds ([4 x i8], [4 x i8]* @.str.2, i64 0, i64 0), i64 3)
  %63 = tail call nonnull align 8 dereferenceable(8) %"class.std::basic_ostream"* @_ZNSolsEi(%"class.std::basic_ostream"* nonnull align 8 dereferenceable(8) %61, i32 %60)
  %64 = bitcast %"class.std::basic_ostream"* %63 to i8**
  %65 = load i8*, i8** %64, align 8, !tbaa !9
  %66 = getelementptr i8, i8* %65, i64 -24
  %67 = bitcast i8* %66 to i64*
  %68 = load i64, i64* %67, align 8
  %69 = bitcast %"class.std::basic_ostream"* %63 to i8*
  %70 = add nsw i64 %68, 240
  %71 = getelementptr inbounds i8, i8* %69, i64 %70
  %72 = bitcast i8* %71 to %"class.std::ctype"**
  %73 = load %"class.std::ctype"*, %"class.std::ctype"** %72, align 8, !tbaa !11
  %74 = icmp eq %"class.std::ctype"* %73, null
  br i1 %74, label %75, label %76

75:                                               ; preds = %59
  tail call void @_ZSt16__throw_bad_castv() #9
  unreachable

76:                                               ; preds = %59
  %77 = getelementptr inbounds %"class.std::ctype", %"class.std::ctype"* %73, i64 0, i32 8
  %78 = load i8, i8* %77, align 8, !tbaa !15
  %79 = icmp eq i8 %78, 0
  br i1 %79, label %83, label %80

80:                                               ; preds = %76
  %81 = getelementptr inbounds %"class.std::ctype", %"class.std::ctype"* %73, i64 0, i32 9, i64 10
  %82 = load i8, i8* %81, align 1, !tbaa !17
  br label %89

83:                                               ; preds = %76
  tail call void @_ZNKSt5ctypeIcE13_M_widen_initEv(%"class.std::ctype"* nonnull align 8 dereferenceable(570) %73)
  %84 = bitcast %"class.std::ctype"* %73 to i8 (%"class.std::ctype"*, i8)***
  %85 = load i8 (%"class.std::ctype"*, i8)**, i8 (%"class.std::ctype"*, i8)*** %84, align 8, !tbaa !9
  %86 = getelementptr inbounds i8 (%"class.std::ctype"*, i8)*, i8 (%"class.std::ctype"*, i8)** %85, i64 6
  %87 = load i8 (%"class.std::ctype"*, i8)*, i8 (%"class.std::ctype"*, i8)** %86, align 8
  %88 = tail call signext i8 %87(%"class.std::ctype"* nonnull align 8 dereferenceable(570) %73, i8 signext 10)
  br label %89

89:                                               ; preds = %80, %83
  %90 = phi i8 [ %82, %80 ], [ %88, %83 ]
  %91 = tail call nonnull align 8 dereferenceable(8) %"class.std::basic_ostream"* @_ZNSo3putEc(%"class.std::basic_ostream"* nonnull align 8 dereferenceable(8) %63, i8 signext %90)
  %92 = tail call nonnull align 8 dereferenceable(8) %"class.std::basic_ostream"* @_ZNSo5flushEv(%"class.std::basic_ostream"* nonnull align 8 dereferenceable(8) %91)
  %93 = load i32, i32* %1, align 4, !tbaa !5
  %94 = icmp eq i32 %93, 1
  br i1 %94, label %95, label %5

95:                                               ; preds = %89, %56, %50, %2, %9
  ret void
}

; Function Attrs: argmemonly mustprogress nofree nosync nounwind willreturn
declare void @llvm.lifetime.end.p0i8(i64 immarg, i8* nocapture) #4

declare nonnull align 8 dereferenceable(8) %"class.std::basic_ostream"* @_ZNSolsEi(%"class.std::basic_ostream"* nonnull align 8 dereferenceable(8), i32) local_unnamed_addr #0

declare nonnull align 8 dereferenceable(8) %"class.std::basic_ostream"* @_ZSt16__ostream_insertIcSt11char_traitsIcEERSt13basic_ostreamIT_T0_ES6_PKS3_l(%"class.std::basic_ostream"* nonnull align 8 dereferenceable(8), i8*, i64) local_unnamed_addr #0

declare nonnull align 8 dereferenceable(8) %"class.std::basic_ostream"* @_ZNSo3putEc(%"class.std::basic_ostream"* nonnull align 8 dereferenceable(8), i8 signext) local_unnamed_addr #0

declare nonnull align 8 dereferenceable(8) %"class.std::basic_ostream"* @_ZNSo5flushEv(%"class.std::basic_ostream"* nonnull align 8 dereferenceable(8)) local_unnamed_addr #0

; Function Attrs: noreturn
declare void @_ZSt16__throw_bad_castv() local_unnamed_addr #6

declare void @_ZNKSt5ctypeIcE13_M_widen_initEv(%"class.std::ctype"* nonnull align 8 dereferenceable(570)) local_unnamed_addr #0

; Function Attrs: sspstrong uwtable
define internal void @_GLOBAL__sub_I_2199.cpp() #7 section ".text.startup" {
  tail call void @_ZNSt8ios_base4InitC1Ev(%"class.std::ios_base::Init"* nonnull align 1 dereferenceable(1) @_ZStL8__ioinit)
  %1 = tail call i32 @__cxa_atexit(void (i8*)* bitcast (void (%"class.std::ios_base::Init"*)* @_ZNSt8ios_base4InitD1Ev to void (i8*)*), i8* getelementptr inbounds (%"class.std::ios_base::Init", %"class.std::ios_base::Init"* @_ZStL8__ioinit, i64 0, i32 0), i8* nonnull @__dso_handle) #8
  ret void
}


!llvm.module.flags = !{!0, !1, !2, !3}
!llvm.ident = !{!4}

!0 = !{i32 1, !"wchar_size", i32 4}
!1 = !{i32 7, !"PIC Level", i32 2}
!2 = !{i32 7, !"PIE Level", i32 2}
!3 = !{i32 7, !"uwtable", i32 1}
!4 = !{!"clang version 13.0.0"}
!5 = !{!6, !6, i64 0}
!6 = !{!"int", !7, i64 0}
!7 = !{!"omnipotent char", !8, i64 0}
!8 = !{!"Simple C++ TBAA"}
!9 = !{!10, !10, i64 0}
!10 = !{!"vtable pointer", !8, i64 0}
!11 = !{!12, !13, i64 240}
!12 = !{!"_ZTSSt9basic_iosIcSt11char_traitsIcEE", !13, i64 216, !7, i64 224, !14, i64 225, !13, i64 232, !13, i64 240, !13, i64 248, !13, i64 256}
!13 = !{!"any pointer", !7, i64 0}
!14 = !{!"bool", !7, i64 0}
!15 = !{!16, !7, i64 56}
!16 = !{!"_ZTSSt5ctypeIcE", !13, i64 16, !14, i64 24, !13, i64 32, !13, i64 40, !13, i64 48, !7, i64 56, !7, i64 57, !7, i64 313, !7, i64 569}
!17 = !{!7, !7, i64 0}
